; ModuleID = '35/879.c'
source_filename = "35/879.c"
target datalayout = "e-m:e-p270:32:32-p271:32:32-p272:64:64-i64:64-f80:128-n8:16:32:64-S128"
target triple = "x86_64-pc-linux-gnu"

@.str = private unnamed_addr constant [6 x i8] c"%d,%d\00", align 1
@.str.1 = private unnamed_addr constant [3 x i8] c"%d\00", align 1
@.str.2 = private unnamed_addr constant [7 x i8] c"%d+%d\0A\00", align 1
@.str.3 = private unnamed_addr constant [4 x i8] c"No\0A\00", align 1

; Function Attrs: noinline nounwind uwtable
define dso_local void @main() #0 {
  %1 = alloca i32, align 4
  %2 = alloca i32, align 4
  %3 = alloca i32, align 4
  %4 = alloca i32, align 4
  %5 = alloca i32, align 4
  %6 = alloca [10 x [10 x i32]], align 16
  %7 = alloca i32, align 4
  %8 = alloca i32, align 4
  %9 = alloca i32, align 4
  %10 = alloca i32, align 4
  %11 = alloca i32, align 4
  store i32 0, i32* %3, align 4
  store i32 0, i32* %4, align 4
  store i32 0, i32* %10, align 4
  %12 = call i32 (i8*, ...) @__isoc99_scanf(i8* getelementptr inbounds ([6 x i8], [6 x i8]* @.str, i64 0, i64 0), i32* %2, i32* %1)
  store i32 0, i32* %5, align 4
  br label %13

13:                                               ; preds = %34, %0
  %14 = load i32, i32* %5, align 4
  %15 = load i32, i32* %2, align 4
  %16 = icmp slt i32 %14, %15
  br i1 %16, label %17, label %37

17:                                               ; preds = %13
  store i32 0, i32* %11, align 4
  br label %18

18:                                               ; preds = %30, %17
  %19 = load i32, i32* %11, align 4
  %20 = load i32, i32* %1, align 4
  %21 = icmp slt i32 %19, %20
  br i1 %21, label %22, label %33

22:                                               ; preds = %18
  %23 = load i32, i32* %5, align 4
  %24 = sext i32 %23 to i64
  %25 = getelementptr inbounds [10 x [10 x i32]], [10 x [10 x i32]]* %6, i64 0, i64 %24
  %26 = load i32, i32* %11, align 4
  %27 = sext i32 %26 to i64
  %28 = getelementptr inbounds [10 x i32], [10 x i32]* %25, i64 0, i64 %27
  %29 = call i32 (i8*, ...) @__isoc99_scanf(i8* getelementptr inbounds ([3 x i8], [3 x i8]* @.str.1, i64 0, i64 0), i32* %28)
  br label %30

30:                                               ; preds = %22
  %31 = load i32, i32* %11, align 4
  %32 = add nsw i32 %31, 1
  store i32 %32, i32* %11, align 4
  br label %18

33:                                               ; preds = %18
  br label %34

34:                                               ; preds = %33
  %35 = load i32, i32* %5, align 4
  %36 = add nsw i32 %35, 1
  store i32 %36, i32* %5, align 4
  br label %13

37:                                               ; preds = %13
  store i32 0, i32* %5, align 4
  br label %38

38:                                               ; preds = %106, %37
  %39 = load i32, i32* %5, align 4
  %40 = load i32, i32* %2, align 4
  %41 = icmp slt i32 %39, %40
  br i1 %41, label %42, label %109

42:                                               ; preds = %38
  store i32 -1, i32* %3, align 4
  store i32 0, i32* %11, align 4
  br label %43

43:                                               ; preds = %68, %42
  %44 = load i32, i32* %11, align 4
  %45 = load i32, i32* %1, align 4
  %46 = icmp slt i32 %44, %45
  br i1 %46, label %47, label %71

47:                                               ; preds = %43
  %48 = load i32, i32* %5, align 4
  %49 = sext i32 %48 to i64
  %50 = getelementptr inbounds [10 x [10 x i32]], [10 x [10 x i32]]* %6, i64 0, i64 %49
  %51 = load i32, i32* %11, align 4
  %52 = sext i32 %51 to i64
  %53 = getelementptr inbounds [10 x i32], [10 x i32]* %50, i64 0, i64 %52
  %54 = load i32, i32* %53, align 4
  %55 = load i32, i32* %3, align 4
  %56 = icmp sgt i32 %54, %55
  br i1 %56, label %57, label %67

57:                                               ; preds = %47
  %58 = load i32, i32* %5, align 4
  store i32 %58, i32* %8, align 4
  %59 = load i32, i32* %11, align 4
  store i32 %59, i32* %7, align 4
  %60 = load i32, i32* %5, align 4
  %61 = sext i32 %60 to i64
  %62 = getelementptr inbounds [10 x [10 x i32]], [10 x [10 x i32]]* %6, i64 0, i64 %61
  %63 = load i32, i32* %11, align 4
  %64 = sext i32 %63 to i64
  %65 = getelementptr inbounds [10 x i32], [10 x i32]* %62, i64 0, i64 %64
  %66 = load i32, i32* %65, align 4
  store i32 %66, i32* %3, align 4
  br label %67

67:                                               ; preds = %57, %47
  br label %68

68:                                               ; preds = %67
  %69 = load i32, i32* %11, align 4
  %70 = add nsw i32 %69, 1
  store i32 %70, i32* %11, align 4
  br label %43

71:                                               ; preds = %43
  store i32 0, i32* %9, align 4
  br label %72

72:                                               ; preds = %94, %71
  %73 = load i32, i32* %9, align 4
  %74 = load i32, i32* %2, align 4
  %75 = icmp slt i32 %73, %74
  br i1 %75, label %76, label %97

76:                                               ; preds = %72
  %77 = load i32, i32* %8, align 4
  %78 = sext i32 %77 to i64
  %79 = getelementptr inbounds [10 x [10 x i32]], [10 x [10 x i32]]* %6, i64 0, i64 %78
  %80 = load i32, i32* %7, align 4
  %81 = sext i32 %80 to i64
  %82 = getelementptr inbounds [10 x i32], [10 x i32]* %79, i64 0, i64 %81
  %83 = load i32, i32* %82, align 4
  %84 = load i32, i32* %9, align 4
  %85 = sext i32 %84 to i64
  %86 = getelementptr inbounds [10 x [10 x i32]], [10 x [10 x i32]]* %6, i64 0, i64 %85
  %87 = load i32, i32* %7, align 4
  %88 = sext i32 %87 to i64
  %89 = getelementptr inbounds [10 x i32], [10 x i32]* %86, i64 0, i64 %88
  %90 = load i32, i32* %89, align 4
  %91 = icmp sgt i32 %83, %90
  br i1 %91, label %92, label %93

92:                                               ; preds = %76
  br label %97

93:                                               ; preds = %76
  br label %94

94:                                               ; preds = %93
  %95 = load i32, i32* %9, align 4
  %96 = add nsw i32 %95, 1
  store i32 %96, i32* %9, align 4
  br label %72

97:                                               ; preds = %92, %72
  %98 = load i32, i32* %9, align 4
  %99 = load i32, i32* %2, align 4
  %100 = icmp eq i32 %98, %99
  br i1 %100, label %101, label %105

101:                                              ; preds = %97
  store i32 1, i32* %10, align 4
  %102 = load i32, i32* %8, align 4
  %103 = load i32, i32* %7, align 4
  %104 = call i32 (i8*, ...) @printf(i8* getelementptr inbounds ([7 x i8], [7 x i8]* @.str.2, i64 0, i64 0), i32 %102, i32 %103)
  br label %105

105:                                              ; preds = %101, %97
  br label %106

106:                                              ; preds = %105
  %107 = load i32, i32* %5, align 4
  %108 = add nsw i32 %107, 1
  store i32 %108, i32* %5, align 4
  br label %38

109:                                              ; preds = %38
  %110 = load i32, i32* %10, align 4
  %111 = icmp eq i32 %110, 0
  br i1 %111, label %112, label %114

112:                                              ; preds = %109
  %113 = call i32 (i8*, ...) @printf(i8* getelementptr inbounds ([4 x i8], [4 x i8]* @.str.3, i64 0, i64 0))
  br label %114

114:                                              ; preds = %112, %109
  ret void
}

declare dso_local i32 @__isoc99_scanf(i8*, ...) #1

declare dso_local i32 @printf(i8*, ...) #1


!llvm.module.flags = !{!0}
!llvm.ident = !{!1}

!0 = !{i32 1, !"wchar_size", i32 4}
!1 = !{!"clang version 10.0.0-4ubuntu1 "}
